target datalayout = "e-m:e-p270:32:32-p271:32:32-p272:64:64-i64:64-i128:128-f80:128-n8:16:32:64-S128"
target triple = "x86_64-unknown-linux-gnu"

%"struct.polynomial::factor_params" = type { i32, i32, i32 }

; Function Attrs: mustprogress nounwind uwtable
define hidden void @_ZN10polynomial13factor_paramsC2Ejjj(ptr noundef nonnull align 4 dereferenceable(12) %this, i32 noundef %max_p, i32 noundef %p_trials, i32 noundef %max_search_size) unnamed_addr #4 align 2 {
entry:
  %this.addr = alloca ptr, align 8
  %max_p.addr = alloca i32, align 4
  %p_trials.addr = alloca i32, align 4
  %max_search_size.addr = alloca i32, align 4
  store ptr %this, ptr %this.addr, align 8
  store i32 %max_p, ptr %max_p.addr, align 4
  store i32 %p_trials, ptr %p_trials.addr, align 4
  store i32 %max_search_size, ptr %max_search_size.addr, align 4
  %this1 = load ptr, ptr %this.addr, align 8
  %m_max_p = getelementptr inbounds %"struct.polynomial::factor_params", ptr %this1, i32 0, i32 0
  %0 = load i32, ptr %max_p.addr, align 4
  store i32 %0, ptr %m_max_p, align 4
  %m_p_trials = getelementptr inbounds %"struct.polynomial::factor_params", ptr %this1, i32 0, i32 1
  %1 = load i32, ptr %p_trials.addr, align 4
  store i32 %1, ptr %m_p_trials, align 4
  %m_max_search_size = getelementptr inbounds %"struct.polynomial::factor_params", ptr %this1, i32 0, i32 2
  %2 = load i32, ptr %max_search_size.addr, align 4
  store i32 %2, ptr %m_max_search_size, align 4
  ret void
}