; Function Attrs: mustprogress nofree norecurse nosync nounwind willreturn memory(argmem: write) uwtable
define hidden void @_ZN10polynomial13factor_paramsC2Ejjj(ptr nocapture noundef nonnull writeonly align 4 dereferenceable(12) %this, i32 noundef %max_p, i32 noundef %p_trials, i32 noundef %max_search_size) unnamed_addr #3 align 2 {
entry:
  store i32 %max_p, ptr %this, align 4
  %m_p_trials = getelementptr inbounds i8, ptr %this, i64 4
  store i32 %p_trials, ptr %m_p_trials, align 4
  %m_max_search_size = getelementptr inbounds i8, ptr %this, i64 8
  store i32 %max_search_size, ptr %m_max_search_size, align 4
  ret void
}